target datalayout = "e-m:e-p270:32:32-p271:32:32-p272:64:64-i64:64-i128:128-f80:128-n8:16:32:64-S128"
target triple = "x86_64-pc-linux-gnu"

%"struct.cv::softdouble" = type { i64 }

; Function Attrs: mustprogress nounwind uwtable
define internal void @_ZN2cvL10raiseFlagsEh(i8 noundef zeroext %0) #1 {
  %2 = alloca i8, align 1
  store i8 %0, ptr %2, align 1
  ret void
}

; Function Attrs: mustprogress nounwind uwtable
define internal noundef zeroext i1 @_ZN2cvL6f64_eqENS_10softdoubleES0_(ptr noundef %0, ptr noundef %1) #1 {
  %3 = alloca i1, align 1
  %4 = alloca ptr, align 8
  %5 = alloca ptr, align 8
  %6 = alloca i64, align 8
  %7 = alloca i64, align 8
  store ptr %0, ptr %4, align 8
  store ptr %1, ptr %5, align 8
  %8 = getelementptr inbounds %"struct.cv::softdouble", ptr %0, i32 0, i32 0
  %9 = load i64, ptr %8, align 8
  store i64 %9, ptr %6, align 8
  %10 = getelementptr inbounds %"struct.cv::softdouble", ptr %1, i32 0, i32 0
  %11 = load i64, ptr %10, align 8
  store i64 %11, ptr %7, align 8
  %12 = load i64, ptr %6, align 8
  %13 = xor i64 %12, -1
  %14 = and i64 %13, 9218868437227405312
  %15 = icmp eq i64 %14, 0
  br i1 %15, label %16, label %20

16:                                               ; preds = %2
  %17 = load i64, ptr %6, align 8
  %18 = and i64 %17, 4503599627370495
  %19 = icmp ne i64 %18, 0
  br i1 %19, label %29, label %20

20:                                               ; preds = %16, %2
  %21 = load i64, ptr %7, align 8
  %22 = xor i64 %21, -1
  %23 = and i64 %22, 9218868437227405312
  %24 = icmp eq i64 %23, 0
  br i1 %24, label %25, label %47

25:                                               ; preds = %20
  %26 = load i64, ptr %7, align 8
  %27 = and i64 %26, 4503599627370495
  %28 = icmp ne i64 %27, 0
  br i1 %28, label %29, label %47

29:                                               ; preds = %25, %16
  %30 = load i64, ptr %6, align 8
  %31 = and i64 %30, 9221120237041090560
  %32 = icmp eq i64 %31, 9218868437227405312
  br i1 %32, label %33, label %37

33:                                               ; preds = %29
  %34 = load i64, ptr %6, align 8
  %35 = and i64 %34, 2251799813685247
  %36 = icmp ne i64 %35, 0
  br i1 %36, label %45, label %37

37:                                               ; preds = %33, %29
  %38 = load i64, ptr %7, align 8
  %39 = and i64 %38, 9221120237041090560
  %40 = icmp eq i64 %39, 9218868437227405312
  br i1 %40, label %41, label %46

41:                                               ; preds = %37
  %42 = load i64, ptr %7, align 8
  %43 = and i64 %42, 2251799813685247
  %44 = icmp ne i64 %43, 0
  br i1 %44, label %45, label %46

45:                                               ; preds = %41, %33
  call void @_ZN2cvL10raiseFlagsEh(i8 noundef zeroext 16)
  br label %46

46:                                               ; preds = %45, %41, %37
  store i1 false, ptr %3, align 1
  br label %60

47:                                               ; preds = %25, %20
  %48 = load i64, ptr %6, align 8
  %49 = load i64, ptr %7, align 8
  %50 = icmp eq i64 %48, %49
  br i1 %50, label %58, label %51

51:                                               ; preds = %47
  %52 = load i64, ptr %6, align 8
  %53 = load i64, ptr %7, align 8
  %54 = or i64 %52, %53
  %55 = and i64 %54, 9223372036854775807
  %56 = icmp ne i64 %55, 0
  %57 = xor i1 %56, true
  br label %58

58:                                               ; preds = %51, %47
  %59 = phi i1 [ true, %47 ], [ %57, %51 ]
  store i1 %59, ptr %3, align 1
  br label %60

60:                                               ; preds = %58, %46
  %61 = load i1, ptr %3, align 1
  ret i1 %61
}

; Function Attrs: mustprogress nounwind uwtable
define linkonce_odr hidden void @_ZN2cv10softdoubleC2ERKS0_(ptr noundef nonnull align 8 dereferenceable(8) %0, ptr noundef nonnull align 8 dereferenceable(8) %1) unnamed_addr #1 comdat align 2 {
  %3 = alloca ptr, align 8
  %4 = alloca ptr, align 8
  store ptr %0, ptr %3, align 8
  store ptr %1, ptr %4, align 8
  %5 = load ptr, ptr %3, align 8
  %6 = load ptr, ptr %4, align 8
  %7 = getelementptr inbounds %"struct.cv::softdouble", ptr %6, i32 0, i32 0
  %8 = load i64, ptr %7, align 8
  %9 = getelementptr inbounds %"struct.cv::softdouble", ptr %5, i32 0, i32 0
  store i64 %8, ptr %9, align 8
  ret void
}

; Function Attrs: mustprogress uwtable
define noundef zeroext i1 @_ZNK2cv10softdoubleneERKS0_(ptr noundef nonnull align 8 dereferenceable(8) %0, ptr noundef nonnull align 8 dereferenceable(8) %1) #0 align 2 {
  %3 = alloca ptr, align 8
  %4 = alloca ptr, align 8
  %5 = alloca %"struct.cv::softdouble", align 8
  %6 = alloca %"struct.cv::softdouble", align 8
  store ptr %0, ptr %3, align 8
  store ptr %1, ptr %4, align 8
  %7 = load ptr, ptr %3, align 8
  call void @_ZN2cv10softdoubleC2ERKS0_(ptr noundef nonnull align 8 dereferenceable(8) %5, ptr noundef nonnull align 8 dereferenceable(8) %7)
  %8 = load ptr, ptr %4, align 8
  call void @_ZN2cv10softdoubleC2ERKS0_(ptr noundef nonnull align 8 dereferenceable(8) %6, ptr noundef nonnull align 8 dereferenceable(8) %8)
  %9 = call noundef zeroext i1 @_ZN2cvL6f64_eqENS_10softdoubleES0_(ptr noundef %5, ptr noundef %6)
  %10 = xor i1 %9, true
  ret i1 %10
}