; Function Attrs: mustprogress nofree norecurse nosync nounwind willreturn memory(argmem: read) uwtable
define noundef zeroext i1 @_ZNK2cv10softdoubleneERKS0_(ptr nocapture noundef nonnull readonly align 8 dereferenceable(8) %0, ptr nocapture noundef nonnull readonly align 8 dereferenceable(8) %1) local_unnamed_addr #4 align 2 {
  %3 = load i64, ptr %0, align 8
  %4 = load i64, ptr %1, align 8
  %5 = and i64 %3, 9218868437227405312
  %6 = icmp ne i64 %5, 9218868437227405312
  %7 = and i64 %3, 4503599627370495
  %.not.i = icmp eq i64 %7, 0
  %or.cond.i = or i1 %6, %.not.i
  br i1 %or.cond.i, label %8, label %_ZN2cvL6f64_eqENS_10softdoubleES0_.exit

8:                                                ; preds = %2
  %9 = and i64 %4, 9218868437227405312
  %10 = icmp ne i64 %9, 9218868437227405312
  %11 = and i64 %4, 4503599627370495
  %.not14.i = icmp eq i64 %11, 0
  %or.cond18.i = or i1 %10, %.not14.i
  br i1 %or.cond18.i, label %12, label %_ZN2cvL6f64_eqENS_10softdoubleES0_.exit

12:                                               ; preds = %8
  %13 = icmp ne i64 %3, %4
  %14 = or i64 %4, %3
  %15 = and i64 %14, 9223372036854775807
  %.not15.i = icmp ne i64 %15, 0
  %.not4 = select i1 %13, i1 %.not15.i, i1 false
  br label %_ZN2cvL6f64_eqENS_10softdoubleES0_.exit

_ZN2cvL6f64_eqENS_10softdoubleES0_.exit:          ; preds = %2, %8, %12
  %.0.i = phi i1 [ %.not4, %12 ], [ true, %8 ], [ true, %2 ]
  ret i1 %.0.i
}